; Function Attrs: mustprogress uwtable
define hidden noundef zeroext i1 @_ZNK2cv7details10Chessboard5Board9PointIter5isNaNEv(ptr noundef nonnull readonly align 8 captures(none) dereferenceable(16) %0) local_unnamed_addr #5 align 2 personality ptr @__gxx_personality_v0 {
  %2 = alloca %"class.std::__cxx11::basic_string", align 8
  %3 = alloca %"class.std::allocator", align 1
  %4 = load i32, ptr %0, align 8, !tbaa !189
  switch i32 %4, label %20 [
    i32 0, label %5
    i32 1, label %8
    i32 2, label %12
    i32 3, label %16
  ]

5:                                                ; preds = %1
  %6 = getelementptr inbounds nuw i8, ptr %0, i64 8
  %7 = load ptr, ptr %6, align 8, !tbaa !192
  br label %_ZNK2cv7details10Chessboard5Board9PointIterdeEv.exit

8:                                                ; preds = %1
  %9 = getelementptr inbounds nuw i8, ptr %0, i64 8
  %10 = load ptr, ptr %9, align 8, !tbaa !192
  %11 = getelementptr inbounds nuw i8, ptr %10, i64 8
  br label %_ZNK2cv7details10Chessboard5Board9PointIterdeEv.exit

12:                                               ; preds = %1
  %13 = getelementptr inbounds nuw i8, ptr %0, i64 8
  %14 = load ptr, ptr %13, align 8, !tbaa !192
  %15 = getelementptr inbounds nuw i8, ptr %14, i64 16
  br label %_ZNK2cv7details10Chessboard5Board9PointIterdeEv.exit

16:                                               ; preds = %1
  %17 = getelementptr inbounds nuw i8, ptr %0, i64 8
  %18 = load ptr, ptr %17, align 8, !tbaa !192
  %19 = getelementptr inbounds nuw i8, ptr %18, i64 24
  br label %_ZNK2cv7details10Chessboard5Board9PointIterdeEv.exit

20:                                               ; preds = %1
  call void @llvm.lifetime.start.p0(i64 32, ptr nonnull %2) #37
  call void @llvm.lifetime.start.p0(i64 1, ptr nonnull %3) #37
  call void @_ZNSt7__cxx1112basic_stringIcSt11char_traitsIcESaIcEEC2EPKcRKS3_(ptr noundef nonnull align 8 dereferenceable(32) %2, ptr noundef nonnull @.str.31, ptr noundef nonnull align 1 dereferenceable(1) %3)
  invoke void @_ZN2cv5errorEiRKNSt7__cxx1112basic_stringIcSt11char_traitsIcESaIcEEEPKcS9_i(i32 noundef -215, ptr noundef nonnull align 8 dereferenceable(32) %2, ptr noundef nonnull @__func__._ZNK2cv7details10Chessboard5Board9PointIterdeEv, ptr noundef nonnull @.str.2, i32 noundef 1198) #36
          to label %21 unwind label %22

21:                                               ; preds = %20
  unreachable

22:                                               ; preds = %20
  %23 = landingpad { ptr, i32 }
          cleanup
  %24 = load ptr, ptr %2, align 8, !tbaa !47
  %25 = getelementptr inbounds nuw i8, ptr %2, i64 16
  %26 = icmp eq ptr %24, %25
  br i1 %26, label %_ZNKSt7__cxx1112basic_stringIcSt11char_traitsIcESaIcEE11_M_is_localEv.exit.thread.i.i.i, label %_ZNKSt7__cxx1112basic_stringIcSt11char_traitsIcESaIcEE11_M_is_localEv.exit.i.i.i

_ZNKSt7__cxx1112basic_stringIcSt11char_traitsIcESaIcEE11_M_is_localEv.exit.thread.i.i.i: ; preds = %22
  %27 = getelementptr inbounds nuw i8, ptr %2, i64 8
  %28 = load i64, ptr %27, align 8, !tbaa !51
  %29 = icmp ult i64 %28, 16
  call void @llvm.assume(i1 %29)
  br label %_ZNSt7__cxx1112basic_stringIcSt11char_traitsIcESaIcEED2Ev.exit.i

_ZNKSt7__cxx1112basic_stringIcSt11char_traitsIcESaIcEE11_M_is_localEv.exit.i.i.i: ; preds = %22
  call void @_ZdlPv(ptr noundef %24) #38
  br label %_ZNSt7__cxx1112basic_stringIcSt11char_traitsIcESaIcEED2Ev.exit.i

_ZNSt7__cxx1112basic_stringIcSt11char_traitsIcESaIcEED2Ev.exit.i: ; preds = %_ZNKSt7__cxx1112basic_stringIcSt11char_traitsIcESaIcEE11_M_is_localEv.exit.i.i.i, %_ZNKSt7__cxx1112basic_stringIcSt11char_traitsIcESaIcEE11_M_is_localEv.exit.thread.i.i.i
  call void @llvm.lifetime.end.p0(i64 1, ptr nonnull %3) #37
  call void @llvm.lifetime.end.p0(i64 32, ptr nonnull %2) #37
  resume { ptr, i32 } %23

_ZNK2cv7details10Chessboard5Board9PointIterdeEv.exit: ; preds = %5, %8, %12, %16
  %.04.in.i = phi ptr [ %19, %16 ], [ %15, %12 ], [ %11, %8 ], [ %7, %5 ]
  %.04.i = load ptr, ptr %.04.in.i, align 8, !tbaa !193
  %30 = load float, ptr %.04.i, align 4, !tbaa !168
  %31 = fcmp uno float %30, 0.000000e+00
  br i1 %31, label %37, label %32

32:                                               ; preds = %_ZNK2cv7details10Chessboard5Board9PointIterdeEv.exit
  %33 = getelementptr inbounds nuw i8, ptr %.04.i, i64 4
  %34 = load float, ptr %33, align 4, !tbaa !169
  %35 = fcmp uno float %34, 0.000000e+00
  br i1 %35, label %37, label %36

36:                                               ; preds = %32
  br label %37

37:                                               ; preds = %_ZNK2cv7details10Chessboard5Board9PointIterdeEv.exit, %32, %36
  %.0 = phi i1 [ false, %36 ], [ true, %32 ], [ true, %_ZNK2cv7details10Chessboard5Board9PointIterdeEv.exit ]
  ret i1 %.0
}